target datalayout = "e-m:e-p270:32:32-p271:32:32-p272:64:64-i64:64-i128:128-f80:128-n8:16:32:64-S128"
target triple = "x86_64-pc-linux-gnu"

%struct.ScanTable = type { ptr, [64 x i8], [64 x i8] }
%struct.MpegEncContext = type { ptr, i32, i32, i32, [12 x i32], i32, %struct.ScanTable, %struct.ScanTable, [64 x i8], [64 x i8], ptr, ptr, i32, i32, i32, i32, i32, i32, i32, i32, i32, i32, i32, i32, i32, i32, i32, i32, i32, i32, i32, i32, i64, i64, ptr, %struct.BufferPoolContext, i32, i32, %union.anon, i32, %struct.MPVWorkPicture, %struct.MPVWorkPicture, %struct.MPVWorkPicture, i32, [3 x i32], ptr, [3 x ptr], ptr, ptr, ptr, ptr, ptr, ptr, [3 x ptr], i32, ptr, ptr, ptr, ptr, %struct.ScratchpadContext, i32, i32, i32, i32, i32, i32, %struct.BlockDSPContext, %struct.H264ChromaContext, %struct.HpelDSPContext, %struct.IDCTDSPContext, %struct.QpelDSPContext, %struct.VideoDSPContext, %struct.H263DSPContext, ptr, [2 x [2 x ptr]], i32, i32, [2 x [4 x [2 x i32]]], [2 x [2 x i32]], [2 x [2 x [2 x i32]]], [2 x [64 x i16]], i32, i32, i32, i32, i32, [6 x i32], [6 x i32], [3 x ptr], ptr, [64 x i16], [64 x i16], [64 x i16], [64 x i16], i32, i32, %struct.GetBitContext, i32, i32, i32, i32, i32, i32, i32, i32, i32, i32, i32, i32, i32, i32, i32, i64, i64, i16, i16, i16, i16, i32, i32, i32, i32, i32, i32, i32, i32, i32, [3 x i32], i32, i32, i32, i32, i32, i32, %struct.GetBitContext, i32, [2 x [2 x i32]], i32, i32, i32, i32, i32, i32, i32, i32, i32, i32, i32, i32, i32, i32, [2 x i32], i32, i32, ptr, ptr, ptr, ptr, ptr, i32, i32, %struct.ERContext }
%struct.BufferPoolContext = type { ptr, ptr, ptr, ptr, ptr, i32, i32, i32 }
%union.anon = type { [32 x ptr] }
%struct.MPVWorkPicture = type { [3 x ptr], [3 x i64], ptr, ptr, [2 x ptr], ptr, ptr, [2 x ptr], i32 }
%struct.ScratchpadContext = type { ptr, ptr, %union.anon.0, i32 }
%union.anon.0 = type { ptr }
%struct.BlockDSPContext = type { ptr, ptr, [2 x ptr] }
%struct.H264ChromaContext = type { [4 x ptr], [4 x ptr] }
%struct.HpelDSPContext = type { [4 x [4 x ptr]], [4 x [4 x ptr]], [4 x [4 x ptr]], [4 x ptr] }
%struct.IDCTDSPContext = type { ptr, ptr, ptr, ptr, ptr, ptr, [64 x i8], i32, i32 }
%struct.QpelDSPContext = type { [2 x [16 x ptr]], [2 x [16 x ptr]], [2 x [16 x ptr]] }
%struct.VideoDSPContext = type { ptr, ptr }
%struct.H263DSPContext = type { ptr, ptr }
%struct.GetBitContext = type { ptr, ptr, i32, i32, i32 }
%struct.ERContext = type { ptr, ptr, i32, ptr, i32, i32, i32, i64, i64, i32, i32, ptr, ptr, [3 x ptr], ptr, ptr, [2 x [4 x [2 x i32]]], %struct.ERPicture, %struct.ERPicture, %struct.ERPicture, [2 x ptr], [2 x ptr], i16, i16, i32, i32, ptr, ptr }
%struct.ERPicture = type { ptr, ptr, ptr, [2 x ptr], [2 x ptr], ptr, i32 }

; Function Attrs: cold nounwind optsize uwtable
define internal i32 @init_duplicate_context(ptr noundef %0) #0 {
  %2 = alloca i32, align 4
  %3 = alloca ptr, align 8
  %4 = alloca i32, align 4
  %5 = alloca i32, align 4
  %6 = alloca i32, align 4
  %7 = alloca i32, align 4
  %8 = alloca i32, align 4
  store ptr %0, ptr %3, align 8, !tbaa !18
  %9 = load ptr, ptr %3, align 8, !tbaa !18
  %10 = getelementptr inbounds nuw %struct.MpegEncContext, ptr %9, i32 0, i32 20
  %11 = load i32, ptr %10, align 8, !tbaa !57
  %12 = add nsw i32 1, %11
  %13 = sext i32 %12 to i64
  %14 = call noalias ptr @av_calloc(i64 noundef %13, i64 noundef 1536)
  %15 = load ptr, ptr %3, align 8, !tbaa !18
  %16 = getelementptr inbounds nuw %struct.MpegEncContext, ptr %15, i32 0, i32 155
  store ptr %14, ptr %16, align 8, !tbaa !58
  %17 = icmp ne ptr %14, null
  br i1 %17, label %19, label %18

18:                                               ; preds = %1
  store i32 -12, ptr %2, align 4
  br label %115

19:                                               ; preds = %1
  %20 = load ptr, ptr %3, align 8, !tbaa !18
  %21 = getelementptr inbounds nuw %struct.MpegEncContext, ptr %20, i32 0, i32 155
  %22 = load ptr, ptr %21, align 8, !tbaa !58
  %23 = getelementptr inbounds [12 x [64 x i16]], ptr %22, i64 0
  %24 = getelementptr inbounds [12 x [64 x i16]], ptr %23, i64 0, i64 0
  %25 = load ptr, ptr %3, align 8, !tbaa !18
  %26 = getelementptr inbounds nuw %struct.MpegEncContext, ptr %25, i32 0, i32 154
  store ptr %24, ptr %26, align 8, !tbaa !59
  %27 = load ptr, ptr %3, align 8, !tbaa !18
  %28 = getelementptr inbounds nuw %struct.MpegEncContext, ptr %27, i32 0, i32 14
  %29 = load i32, ptr %28, align 8, !tbaa !60
  %30 = icmp eq i32 %29, 2
  br i1 %30, label %31, label %114

31:                                               ; preds = %19
  call void @llvm.lifetime.start.p0(i64 4, ptr %4) #7
  %32 = load ptr, ptr %3, align 8, !tbaa !18
  %33 = getelementptr inbounds nuw %struct.MpegEncContext, ptr %32, i32 0, i32 131
  %34 = load i32, ptr %33, align 4, !tbaa !61
  %35 = icmp eq i32 %34, 6
  br i1 %35, label %36, label %43

36:                                               ; preds = %31
  %37 = load ptr, ptr %3, align 8, !tbaa !18
  %38 = getelementptr inbounds nuw %struct.MpegEncContext, ptr %37, i32 0, i32 26
  %39 = load i32, ptr %38, align 8, !tbaa !53
  %40 = add nsw i32 %39, 2
  %41 = sub nsw i32 %40, 1
  %42 = and i32 %41, -2
  br label %47

43:                                               ; preds = %31
  %44 = load ptr, ptr %3, align 8, !tbaa !18
  %45 = getelementptr inbounds nuw %struct.MpegEncContext, ptr %44, i32 0, i32 26
  %46 = load i32, ptr %45, align 8, !tbaa !53
  br label %47

47:                                               ; preds = %43, %36
  %48 = phi i32 [ %42, %36 ], [ %46, %43 ]
  store i32 %48, ptr %4, align 4, !tbaa !13
  call void @llvm.lifetime.start.p0(i64 4, ptr %5) #7
  %49 = load ptr, ptr %3, align 8, !tbaa !18
  %50 = getelementptr inbounds nuw %struct.MpegEncContext, ptr %49, i32 0, i32 28
  %51 = load i32, ptr %50, align 8, !tbaa !62
  %52 = load i32, ptr %4, align 4, !tbaa !13
  %53 = mul nsw i32 2, %52
  %54 = add nsw i32 %53, 1
  %55 = mul nsw i32 %51, %54
  store i32 %55, ptr %5, align 4, !tbaa !13
  call void @llvm.lifetime.start.p0(i64 4, ptr %6) #7
  %56 = load ptr, ptr %3, align 8, !tbaa !18
  %57 = getelementptr inbounds nuw %struct.MpegEncContext, ptr %56, i32 0, i32 27
  %58 = load i32, ptr %57, align 4, !tbaa !63
  %59 = load i32, ptr %4, align 4, !tbaa !13
  %60 = add nsw i32 %59, 1
  %61 = mul nsw i32 %58, %60
  store i32 %61, ptr %6, align 4, !tbaa !13
  call void @llvm.lifetime.start.p0(i64 4, ptr %7) #7
  %62 = load i32, ptr %5, align 4, !tbaa !13
  %63 = load i32, ptr %6, align 4, !tbaa !13
  %64 = mul nsw i32 2, %63
  %65 = add nsw i32 %62, %64
  store i32 %65, ptr %7, align 4, !tbaa !13
  %66 = load i32, ptr %7, align 4, !tbaa !13
  %67 = sext i32 %66 to i64
  %68 = call noalias ptr @av_calloc(i64 noundef %67, i64 noundef 32)
  %69 = load ptr, ptr %3, align 8, !tbaa !18
  %70 = getelementptr inbounds nuw %struct.MpegEncContext, ptr %69, i32 0, i32 52
  store ptr %68, ptr %70, align 8, !tbaa !64
  %71 = icmp ne ptr %68, null
  br i1 %71, label %73, label %72

72:                                               ; preds = %47
  store i32 -12, ptr %2, align 4
  store i32 1, ptr %8, align 4
  br label %111

73:                                               ; preds = %47
  %74 = load ptr, ptr %3, align 8, !tbaa !18
  %75 = getelementptr inbounds nuw %struct.MpegEncContext, ptr %74, i32 0, i32 52
  %76 = load ptr, ptr %75, align 8, !tbaa !64
  %77 = load ptr, ptr %3, align 8, !tbaa !18
  %78 = getelementptr inbounds nuw %struct.MpegEncContext, ptr %77, i32 0, i32 28
  %79 = load i32, ptr %78, align 8, !tbaa !62
  %80 = sext i32 %79 to i64
  %81 = getelementptr inbounds [16 x i16], ptr %76, i64 %80
  %82 = getelementptr inbounds [16 x i16], ptr %81, i64 1
  %83 = load ptr, ptr %3, align 8, !tbaa !18
  %84 = getelementptr inbounds nuw %struct.MpegEncContext, ptr %83, i32 0, i32 53
  %85 = getelementptr inbounds [3 x ptr], ptr %84, i64 0, i64 0
  store ptr %82, ptr %85, align 8, !tbaa !65
  %86 = load ptr, ptr %3, align 8, !tbaa !18
  %87 = getelementptr inbounds nuw %struct.MpegEncContext, ptr %86, i32 0, i32 52
  %88 = load ptr, ptr %87, align 8, !tbaa !64
  %89 = load i32, ptr %5, align 4, !tbaa !13
  %90 = sext i32 %89 to i64
  %91 = getelementptr inbounds [16 x i16], ptr %88, i64 %90
  %92 = load ptr, ptr %3, align 8, !tbaa !18
  %93 = getelementptr inbounds nuw %struct.MpegEncContext, ptr %92, i32 0, i32 27
  %94 = load i32, ptr %93, align 4, !tbaa !63
  %95 = sext i32 %94 to i64
  %96 = getelementptr inbounds [16 x i16], ptr %91, i64 %95
  %97 = getelementptr inbounds [16 x i16], ptr %96, i64 1
  %98 = load ptr, ptr %3, align 8, !tbaa !18
  %99 = getelementptr inbounds nuw %struct.MpegEncContext, ptr %98, i32 0, i32 53
  %100 = getelementptr inbounds [3 x ptr], ptr %99, i64 0, i64 1
  store ptr %97, ptr %100, align 8, !tbaa !65
  %101 = load ptr, ptr %3, align 8, !tbaa !18
  %102 = getelementptr inbounds nuw %struct.MpegEncContext, ptr %101, i32 0, i32 53
  %103 = getelementptr inbounds [3 x ptr], ptr %102, i64 0, i64 1
  %104 = load ptr, ptr %103, align 8, !tbaa !65
  %105 = load i32, ptr %6, align 4, !tbaa !13
  %106 = sext i32 %105 to i64
  %107 = getelementptr inbounds [16 x i16], ptr %104, i64 %106
  %108 = load ptr, ptr %3, align 8, !tbaa !18
  %109 = getelementptr inbounds nuw %struct.MpegEncContext, ptr %108, i32 0, i32 53
  %110 = getelementptr inbounds [3 x ptr], ptr %109, i64 0, i64 2
  store ptr %107, ptr %110, align 8, !tbaa !65
  store i32 0, ptr %8, align 4
  br label %111

111:                                              ; preds = %73, %72
  call void @llvm.lifetime.end.p0(i64 4, ptr %7) #7
  call void @llvm.lifetime.end.p0(i64 4, ptr %6) #7
  call void @llvm.lifetime.end.p0(i64 4, ptr %5) #7
  call void @llvm.lifetime.end.p0(i64 4, ptr %4) #7
  %112 = load i32, ptr %8, align 4
  switch i32 %112, label %117 [
    i32 0, label %113
    i32 1, label %115
  ]

113:                                              ; preds = %111
  br label %114

114:                                              ; preds = %113, %19
  store i32 0, ptr %2, align 4
  br label %115

115:                                              ; preds = %114, %111, %18
  %116 = load i32, ptr %2, align 4
  ret i32 %116

117:                                              ; preds = %111
  unreachable
}