; Function Attrs: cold nounwind optsize uwtable
define internal fastcc range(i32 -12, 1) i32 @init_duplicate_context(ptr noundef captures(none) initializes((4296, 4304)) %0) unnamed_addr #2 {
  %2 = getelementptr inbounds nuw i8, ptr %0, i64 520
  %3 = load i32, ptr %2, align 8, !tbaa !50
  %4 = add nsw i32 %3, 1
  %5 = sext i32 %4 to i64
  %6 = tail call noalias ptr @av_calloc(i64 noundef %5, i64 noundef 1536) #12
  %7 = getelementptr inbounds nuw i8, ptr %0, i64 4296
  store ptr %6, ptr %7, align 8, !tbaa !51
  %.not = icmp eq ptr %6, null
  br i1 %.not, label %51, label %8

8:                                                ; preds = %1
  %9 = getelementptr inbounds nuw i8, ptr %0, i64 4288
  store ptr %6, ptr %9, align 8, !tbaa !52
  %10 = getelementptr inbounds nuw i8, ptr %0, i64 496
  %11 = load i32, ptr %10, align 8, !tbaa !53
  %12 = icmp eq i32 %11, 2
  br i1 %12, label %13, label %51

13:                                               ; preds = %8
  %14 = getelementptr inbounds nuw i8, ptr %0, i64 4148
  %15 = load i32, ptr %14, align 4, !tbaa !54
  %16 = icmp eq i32 %15, 6
  %17 = getelementptr inbounds nuw i8, ptr %0, i64 544
  %18 = load i32, ptr %17, align 8, !tbaa !47
  %19 = add nsw i32 %18, 1
  %20 = and i32 %19, -2
  %21 = select i1 %16, i32 %20, i32 %18
  %22 = getelementptr inbounds nuw i8, ptr %0, i64 552
  %23 = load i32, ptr %22, align 8, !tbaa !55
  %24 = shl nsw i32 %21, 1
  %25 = or disjoint i32 %24, 1
  %26 = mul nsw i32 %25, %23
  %27 = getelementptr inbounds nuw i8, ptr %0, i64 548
  %28 = load i32, ptr %27, align 4, !tbaa !56
  %29 = add nsw i32 %21, 1
  %30 = mul nsw i32 %28, %29
  %31 = shl nsw i32 %30, 1
  %32 = add nsw i32 %31, %26
  %33 = sext i32 %32 to i64
  %34 = tail call noalias ptr @av_calloc(i64 noundef %33, i64 noundef 32) #12
  %35 = getelementptr inbounds nuw i8, ptr %0, i64 1368
  store ptr %34, ptr %35, align 8, !tbaa !57
  %.not30 = icmp eq ptr %34, null
  br i1 %.not30, label %51, label %.thread

.thread:                                          ; preds = %13
  %36 = load i32, ptr %22, align 8, !tbaa !55
  %37 = sext i32 %36 to i64
  %38 = getelementptr inbounds [16 x i16], ptr %34, i64 %37
  %39 = getelementptr inbounds nuw i8, ptr %38, i64 32
  %40 = getelementptr inbounds nuw i8, ptr %0, i64 1376
  store ptr %39, ptr %40, align 8, !tbaa !58
  %41 = sext i32 %26 to i64
  %42 = getelementptr inbounds [16 x i16], ptr %34, i64 %41
  %43 = load i32, ptr %27, align 4, !tbaa !56
  %44 = sext i32 %43 to i64
  %45 = getelementptr inbounds [16 x i16], ptr %42, i64 %44
  %46 = getelementptr inbounds nuw i8, ptr %45, i64 32
  %47 = getelementptr inbounds nuw i8, ptr %0, i64 1384
  store ptr %46, ptr %47, align 8, !tbaa !58
  %48 = sext i32 %30 to i64
  %49 = getelementptr inbounds [16 x i16], ptr %46, i64 %48
  %50 = getelementptr inbounds nuw i8, ptr %0, i64 1392
  store ptr %49, ptr %50, align 8, !tbaa !58
  br label %51

51:                                               ; preds = %8, %.thread, %13, %1
  %.027 = phi i32 [ -12, %1 ], [ -12, %13 ], [ 0, %.thread ], [ 0, %8 ]
  ret i32 %.027
}